target datalayout = "e-m:e-p270:32:32-p271:32:32-p272:64:64-i64:64-i128:128-f80:128-n8:16:32:64-S128"
target triple = "x86_64-pc-linux-gnu"

%struct.PaUtilAllocationGroup = type { i64, ptr, ptr, ptr }
%struct.PaUtilAllocationGroupLink = type { ptr, ptr }

; Function Attrs: nounwind uwtable
define internal ptr @AllocateLinks(i64 noundef %0, ptr noundef %1, ptr noundef %2) #0 {
  %4 = alloca i64, align 8
  %5 = alloca ptr, align 8
  %6 = alloca ptr, align 8
  %7 = alloca ptr, align 8
  %8 = alloca i32, align 4
  store i64 %0, ptr %4, align 8, !tbaa !15
  store ptr %1, ptr %5, align 8, !tbaa !7
  store ptr %2, ptr %6, align 8, !tbaa !7
  call void @llvm.lifetime.start.p0(i64 8, ptr %7) #3
  call void @llvm.lifetime.start.p0(i64 4, ptr %8) #3
  %9 = load i64, ptr %4, align 8, !tbaa !15
  %10 = mul i64 16, %9
  %11 = call ptr @PaUtil_AllocateZeroInitializedMemory(i64 noundef %10)
  store ptr %11, ptr %7, align 8, !tbaa !7
  %12 = load ptr, ptr %7, align 8, !tbaa !7
  %13 = icmp ne ptr %12, null
  br i1 %13, label %14, label %54

14:                                               ; preds = %3
  %15 = load ptr, ptr %7, align 8, !tbaa !7
  %16 = load ptr, ptr %7, align 8, !tbaa !7
  %17 = getelementptr inbounds %struct.PaUtilAllocationGroupLink, ptr %16, i64 0
  %18 = getelementptr inbounds nuw %struct.PaUtilAllocationGroupLink, ptr %17, i32 0, i32 1
  store ptr %15, ptr %18, align 8, !tbaa !16
  %19 = load ptr, ptr %5, align 8, !tbaa !7
  %20 = load ptr, ptr %7, align 8, !tbaa !7
  %21 = getelementptr inbounds %struct.PaUtilAllocationGroupLink, ptr %20, i64 0
  %22 = getelementptr inbounds nuw %struct.PaUtilAllocationGroupLink, ptr %21, i32 0, i32 0
  store ptr %19, ptr %22, align 8, !tbaa !18
  store i32 1, ptr %8, align 4, !tbaa !19
  br label %23

23:                                               ; preds = %44, %14
  %24 = load i32, ptr %8, align 4, !tbaa !19
  %25 = sext i32 %24 to i64
  %26 = load i64, ptr %4, align 8, !tbaa !15
  %27 = icmp slt i64 %25, %26
  br i1 %27, label %28, label %47

28:                                               ; preds = %23
  %29 = load ptr, ptr %7, align 8, !tbaa !7
  %30 = load i32, ptr %8, align 4, !tbaa !19
  %31 = sext i32 %30 to i64
  %32 = getelementptr inbounds %struct.PaUtilAllocationGroupLink, ptr %29, i64 %31
  %33 = getelementptr inbounds nuw %struct.PaUtilAllocationGroupLink, ptr %32, i32 0, i32 1
  store ptr null, ptr %33, align 8, !tbaa !16
  %34 = load ptr, ptr %7, align 8, !tbaa !7
  %35 = load i32, ptr %8, align 4, !tbaa !19
  %36 = add nsw i32 %35, 1
  %37 = sext i32 %36 to i64
  %38 = getelementptr inbounds %struct.PaUtilAllocationGroupLink, ptr %34, i64 %37
  %39 = load ptr, ptr %7, align 8, !tbaa !7
  %40 = load i32, ptr %8, align 4, !tbaa !19
  %41 = sext i32 %40 to i64
  %42 = getelementptr inbounds %struct.PaUtilAllocationGroupLink, ptr %39, i64 %41
  %43 = getelementptr inbounds nuw %struct.PaUtilAllocationGroupLink, ptr %42, i32 0, i32 0
  store ptr %38, ptr %43, align 8, !tbaa !18
  br label %44

44:                                               ; preds = %28
  %45 = load i32, ptr %8, align 4, !tbaa !19
  %46 = add nsw i32 %45, 1
  store i32 %46, ptr %8, align 4, !tbaa !19
  br label %23, !llvm.loop !21

47:                                               ; preds = %23
  %48 = load ptr, ptr %6, align 8, !tbaa !7
  %49 = load ptr, ptr %7, align 8, !tbaa !7
  %50 = load i64, ptr %4, align 8, !tbaa !15
  %51 = sub nsw i64 %50, 1
  %52 = getelementptr inbounds %struct.PaUtilAllocationGroupLink, ptr %49, i64 %51
  %53 = getelementptr inbounds nuw %struct.PaUtilAllocationGroupLink, ptr %52, i32 0, i32 0
  store ptr %48, ptr %53, align 8, !tbaa !18
  br label %54

54:                                               ; preds = %47, %3
  %55 = load ptr, ptr %7, align 8, !tbaa !7
  call void @llvm.lifetime.end.p0(i64 4, ptr %8) #3
  call void @llvm.lifetime.end.p0(i64 8, ptr %7) #3
  ret ptr %55
}

; Function Attrs: nounwind uwtable
define ptr @PaUtil_CreateAllocationGroup() #0 {
  %1 = alloca ptr, align 8
  %2 = alloca ptr, align 8
  call void @llvm.lifetime.start.p0(i64 8, ptr %1) #3
  store ptr null, ptr %1, align 8, !tbaa !3
  call void @llvm.lifetime.start.p0(i64 8, ptr %2) #3
  %3 = call ptr @AllocateLinks(i64 noundef 16, ptr noundef null, ptr noundef null)
  store ptr %3, ptr %2, align 8, !tbaa !7
  %4 = load ptr, ptr %2, align 8, !tbaa !7
  %5 = icmp ne ptr %4, null
  br i1 %5, label %6, label %26

6:                                                ; preds = %0
  %7 = call ptr @PaUtil_AllocateZeroInitializedMemory(i64 noundef 32)
  store ptr %7, ptr %1, align 8, !tbaa !3
  %8 = load ptr, ptr %1, align 8, !tbaa !3
  %9 = icmp ne ptr %8, null
  br i1 %9, label %10, label %23

10:                                               ; preds = %6
  %11 = load ptr, ptr %1, align 8, !tbaa !3
  %12 = getelementptr inbounds nuw %struct.PaUtilAllocationGroup, ptr %11, i32 0, i32 0
  store i64 16, ptr %12, align 8, !tbaa !9
  %13 = load ptr, ptr %2, align 8, !tbaa !7
  %14 = getelementptr inbounds %struct.PaUtilAllocationGroupLink, ptr %13, i64 0
  %15 = load ptr, ptr %1, align 8, !tbaa !3
  %16 = getelementptr inbounds nuw %struct.PaUtilAllocationGroup, ptr %15, i32 0, i32 1
  store ptr %14, ptr %16, align 8, !tbaa !12
  %17 = load ptr, ptr %2, align 8, !tbaa !7
  %18 = getelementptr inbounds %struct.PaUtilAllocationGroupLink, ptr %17, i64 1
  %19 = load ptr, ptr %1, align 8, !tbaa !3
  %20 = getelementptr inbounds nuw %struct.PaUtilAllocationGroup, ptr %19, i32 0, i32 2
  store ptr %18, ptr %20, align 8, !tbaa !13
  %21 = load ptr, ptr %1, align 8, !tbaa !3
  %22 = getelementptr inbounds nuw %struct.PaUtilAllocationGroup, ptr %21, i32 0, i32 3
  store ptr null, ptr %22, align 8, !tbaa !14
  br label %25

23:                                               ; preds = %6
  %24 = load ptr, ptr %2, align 8, !tbaa !7
  call void @PaUtil_FreeMemory(ptr noundef %24)
  br label %25

25:                                               ; preds = %23, %10
  br label %26

26:                                               ; preds = %25, %0
  %27 = load ptr, ptr %1, align 8, !tbaa !3
  call void @llvm.lifetime.end.p0(i64 8, ptr %2) #3
  call void @llvm.lifetime.end.p0(i64 8, ptr %1) #3
  ret ptr %27
}