; Function Attrs: nounwind uwtable
define ptr @PaUtil_CreateAllocationGroup() local_unnamed_addr #0 {
  %1 = tail call ptr @PaUtil_AllocateZeroInitializedMemory(i64 noundef 256) #2
  %.not.i = icmp eq ptr %1, null
  br i1 %.not.i, label %AllocateLinks.exit.thread, label %2

2:                                                ; preds = %0
  %3 = getelementptr inbounds nuw i8, ptr %1, i64 8
  store ptr %1, ptr %3, align 8, !tbaa !3
  store ptr null, ptr %1, align 8, !tbaa !9
  br label %.lr.ph.i

.lr.ph.i:                                         ; preds = %.lr.ph.i, %2
  %indvars.iv.i = phi i64 [ %indvars.iv.next.i, %.lr.ph.i ], [ 1, %2 ]
  %4 = getelementptr inbounds nuw %struct.PaUtilAllocationGroupLink, ptr %1, i64 %indvars.iv.i
  %5 = getelementptr inbounds nuw i8, ptr %4, i64 8
  store ptr null, ptr %5, align 8, !tbaa !3
  %indvars.iv.next.i = add nuw nsw i64 %indvars.iv.i, 1
  %6 = getelementptr inbounds nuw %struct.PaUtilAllocationGroupLink, ptr %1, i64 %indvars.iv.next.i
  store ptr %6, ptr %4, align 8, !tbaa !9
  %exitcond.not.i = icmp eq i64 %indvars.iv.next.i, 16
  br i1 %exitcond.not.i, label %7, label %.lr.ph.i, !llvm.loop !10

7:                                                ; preds = %.lr.ph.i
  %8 = getelementptr i8, ptr %1, i64 240
  store ptr null, ptr %8, align 8, !tbaa !9
  %9 = tail call ptr @PaUtil_AllocateZeroInitializedMemory(i64 noundef 32) #2
  %.not12 = icmp eq ptr %9, null
  br i1 %.not12, label %15, label %10

10:                                               ; preds = %7
  store i64 16, ptr %9, align 8, !tbaa !12
  %11 = getelementptr inbounds nuw i8, ptr %9, i64 8
  store ptr %1, ptr %11, align 8, !tbaa !15
  %12 = getelementptr inbounds nuw i8, ptr %1, i64 16
  %13 = getelementptr inbounds nuw i8, ptr %9, i64 16
  store ptr %12, ptr %13, align 8, !tbaa !16
  %14 = getelementptr inbounds nuw i8, ptr %9, i64 24
  store ptr null, ptr %14, align 8, !tbaa !17
  br label %AllocateLinks.exit.thread

15:                                               ; preds = %7
  tail call void @PaUtil_FreeMemory(ptr noundef nonnull %1) #2
  br label %AllocateLinks.exit.thread

AllocateLinks.exit.thread:                        ; preds = %0, %10, %15
  %.0 = phi ptr [ %9, %10 ], [ null, %15 ], [ null, %0 ]
  ret ptr %.0
}